target datalayout = "e-m:e-p270:32:32-p271:32:32-p272:64:64-i64:64-i128:128-f80:128-n8:16:32:64-S128"
target triple = "x86_64-pc-linux-gnu"

%struct.H5FD_onion_fapl_info_t = type { i8, i64, i32, i32, i64, i8, i8, [256 x i8] }
%struct.H5FD_onion_t = type { %struct.H5FD_t, %struct.H5FD_onion_fapl_info_t, i8, i8, ptr, ptr, ptr, ptr, %struct.H5FD_onion_header_t, %struct.H5FD_onion_history_t, %struct.H5FD_onion_revision_record_t, ptr, i64, i64, i64, i64 }
%struct.H5FD_t = type { i64, ptr, i64, i32, i64, i64, i64, i64, i64, i8 }
%struct.H5FD_onion_header_t = type { i8, i32, i32, i64, i64, i64, i32 }
%struct.H5FD_onion_history_t = type { i8, i64, ptr, i32 }
%struct.H5FD_onion_revision_record_t = type { i8, i64, i64, [16 x i8], i64, %struct.H5FD_onion_archival_index_t, i32, ptr, i32 }
%struct.H5FD_onion_archival_index_t = type { i8, i32, i64, ptr }

@.str = private unnamed_addr constant [103 x i8] c"generated/home/dtcxzyw/WorkSpace/Projects/compilers/llvm-opt-benchmark/bench/hdf5/hdf5/src/H5FDonion.c\00", align 1
@H5E_VFL_g = external global i64, align 8
@__func__.H5FD__onion_sb_decode = private unnamed_addr constant [22 x i8] c"H5FD__onion_sb_decode\00", align 1
@H5E_CANTDECODE_g = external global i64, align 8
@.str.26 = private unnamed_addr constant [44 x i8] c"unable to decode the superblock in R/W file\00", align 1

; Function Attrs: nounwind uwtable
define internal i32 @H5FD__onion_sb_decode(ptr noundef %0, ptr noundef %1, ptr noundef %2) #0 {
  %4 = alloca ptr, align 8
  %5 = alloca ptr, align 8
  %6 = alloca ptr, align 8
  %7 = alloca ptr, align 8
  %8 = alloca i32, align 4
  %9 = alloca i8, align 1
  store ptr %0, ptr %4, align 8
  store ptr %1, ptr %5, align 8
  store ptr %2, ptr %6, align 8
  %10 = load ptr, ptr %4, align 8
  store ptr %10, ptr %7, align 8
  store i32 0, ptr %8, align 4
  store i8 0, ptr %9, align 1
  %11 = load ptr, ptr %7, align 8
  %12 = getelementptr inbounds %struct.H5FD_onion_t, ptr %11, i32 0, i32 4
  %13 = load ptr, ptr %12, align 8
  %14 = load ptr, ptr %5, align 8
  %15 = load ptr, ptr %6, align 8
  %16 = call i32 @H5FD_sb_load(ptr noundef %13, ptr noundef %14, ptr noundef %15)
  %17 = icmp slt i32 %16, 0
  br i1 %17, label %18, label %33

18:                                               ; preds = %3
  br label %19

19:                                               ; preds = %18
  br label %20

20:                                               ; preds = %19
  br label %21

21:                                               ; preds = %20
  %22 = load i64, ptr @H5E_VFL_g, align 8
  %23 = load i64, ptr @H5E_CANTDECODE_g, align 8
  %24 = call i32 (ptr, ptr, i32, i64, i64, ptr, ...) @H5E_printf_stack(ptr noundef @.str, ptr noundef @__func__.H5FD__onion_sb_decode, i32 noundef 435, i64 noundef %22, i64 noundef %23, ptr noundef @.str.26)
  br label %25

25:                                               ; preds = %21
  store i8 1, ptr %9, align 1
  %26 = load i8, ptr %9, align 1
  %27 = trunc i8 %26 to i1
  %28 = zext i1 %27 to i8
  store i8 %28, ptr %9, align 1
  br label %29

29:                                               ; preds = %25
  br label %30

30:                                               ; preds = %29
  store i32 -1, ptr %8, align 4
  br label %34

31:                                               ; No predecessors!
  br label %32

32:                                               ; preds = %31
  br label %33

33:                                               ; preds = %32, %3
  br label %34

34:                                               ; preds = %33, %30
  %35 = load i32, ptr %8, align 4
  ret i32 %35
}