; Function Attrs: nounwind uwtable
define internal range(i32 -1, 1) i32 @H5FD__onion_sb_decode(ptr noundef readonly captures(none) %0, ptr noundef %1, ptr noundef %2) #0 {
  %4 = getelementptr inbounds nuw i8, ptr %0, i64 384
  %5 = load ptr, ptr %4, align 8
  %6 = tail call i32 @H5FD_sb_load(ptr noundef %5, ptr noundef %1, ptr noundef %2) #18
  %7 = icmp slt i32 %6, 0
  br i1 %7, label %8, label %12

8:                                                ; preds = %3
  %9 = load i64, ptr @H5E_VFL_g, align 8
  %10 = load i64, ptr @H5E_CANTDECODE_g, align 8
  %11 = tail call i32 (ptr, ptr, i32, i64, i64, ptr, ...) @H5E_printf_stack(ptr noundef nonnull @.str, ptr noundef nonnull @__func__.H5FD__onion_sb_decode, i32 noundef 435, i64 noundef %9, i64 noundef %10, ptr noundef nonnull @.str.26) #18
  br label %12

12:                                               ; preds = %3, %8
  %.0 = phi i32 [ -1, %8 ], [ 0, %3 ]
  ret i32 %.0
}